; Function Attrs: mustprogress uwtable
define internal fastcc noundef i32 @_ZN7rocksdb12_GLOBAL__N_118ChecksumHexToInt32ERKNSt7__cxx1112basic_stringIcSt11char_traitsIcESaIcEEE(ptr noundef nonnull align 8 dereferenceable(32) %checksum_hex) unnamed_addr #3 personality ptr @__gxx_personality_v0 {
entry:
  %checksum_str = alloca %"class.std::__cxx11::basic_string", align 8
  %ref.tmp = alloca %"class.rocksdb::Slice", align 8
  call void @_ZNSt7__cxx1112basic_stringIcSt11char_traitsIcESaIcEEC1Ev(ptr noundef nonnull align 8 dereferenceable(32) %checksum_str) #33
  %call.i = call noundef ptr @_ZNKSt7__cxx1112basic_stringIcSt11char_traitsIcESaIcEE4dataEv(ptr noundef nonnull align 8 dereferenceable(32) %checksum_hex) #33
  store ptr %call.i, ptr %ref.tmp, align 8
  %size_.i = getelementptr inbounds i8, ptr %ref.tmp, i64 8
  %call2.i = call noundef i64 @_ZNKSt7__cxx1112basic_stringIcSt11char_traitsIcESaIcEE4sizeEv(ptr noundef nonnull align 8 dereferenceable(32) %checksum_hex) #33
  store i64 %call2.i, ptr %size_.i, align 8
  %call = invoke noundef zeroext i1 @_ZNK7rocksdb5Slice9DecodeHexEPNSt7__cxx1112basic_stringIcSt11char_traitsIcESaIcEEE(ptr noundef nonnull align 8 dereferenceable(16) %ref.tmp, ptr noundef nonnull %checksum_str)
          to label %invoke.cont1 unwind label %lpad

invoke.cont1:                                     ; preds = %entry
  %call2 = call noundef ptr @_ZNKSt7__cxx1112basic_stringIcSt11char_traitsIcESaIcEE5c_strEv(ptr noundef nonnull align 8 dereferenceable(32) %checksum_str) #33
  %result.0.copyload.i = load i32, ptr %call2, align 1
  %0 = call noundef i32 @llvm.bswap.i32(i32 %result.0.copyload.i)
  call void @_ZNSt7__cxx1112basic_stringIcSt11char_traitsIcESaIcEED1Ev(ptr noundef nonnull align 8 dereferenceable(32) %checksum_str) #33
  ret i32 %0

lpad:                                             ; preds = %entry
  %1 = landingpad { ptr, i32 }
          cleanup
  call void @_ZNSt7__cxx1112basic_stringIcSt11char_traitsIcESaIcEED1Ev(ptr noundef nonnull align 8 dereferenceable(32) %checksum_str) #33
  resume { ptr, i32 } %1
}